target datalayout = "e-m:e-p270:32:32-p271:32:32-p272:64:64-i64:64-i128:128-f80:128-n8:16:32:64-S128"
target triple = "x86_64-pc-linux-gnu"

%struct.jpeg_compress_struct = type { ptr, ptr, ptr, ptr, i32, i32, ptr, i32, i32, i32, i32, double, i32, i32, i32, ptr, [4 x ptr], [4 x ptr], [4 x ptr], [16 x i8], [16 x i8], [16 x i8], i32, ptr, i32, i32, i32, i32, i32, i32, i32, i32, i32, i8, i8, i8, i16, i16, i32, i32, i32, i32, i32, i32, i32, [4 x ptr], i32, i32, i32, [10 x i32], i32, i32, i32, i32, ptr, ptr, ptr, ptr, ptr, ptr, ptr, ptr, ptr, ptr, i32 }
%struct.phuff_entropy_encoder = type { %struct.jpeg_entropy_encoder, i32, ptr, i64, i32, i32, ptr, [4 x i32], i32, i32, i32, ptr, i32, i32, [4 x ptr], [4 x ptr] }
%struct.jpeg_entropy_encoder = type { ptr, ptr, ptr }
%struct.jpeg_error_mgr = type { ptr, ptr, ptr, ptr, ptr, i32, %union.anon, i32, i64, ptr, i32, ptr, i32, i32 }
%union.anon = type { [8 x i32], [48 x i8] }
%struct.jpeg_destination_mgr = type { ptr, i64, ptr, ptr, ptr }

; Function Attrs: nounwind uwtable
define internal void @dump_buffer(ptr noundef %0) #0 {
  %2 = alloca ptr, align 8
  %3 = alloca ptr, align 8
  store ptr %0, ptr %2, align 8
  %4 = load ptr, ptr %2, align 8
  %5 = getelementptr inbounds %struct.phuff_entropy_encoder, ptr %4, i32 0, i32 6
  %6 = load ptr, ptr %5, align 8
  %7 = getelementptr inbounds %struct.jpeg_compress_struct, ptr %6, i32 0, i32 6
  %8 = load ptr, ptr %7, align 8
  store ptr %8, ptr %3, align 8
  %9 = load ptr, ptr %3, align 8
  %10 = getelementptr inbounds %struct.jpeg_destination_mgr, ptr %9, i32 0, i32 3
  %11 = load ptr, ptr %10, align 8
  %12 = load ptr, ptr %2, align 8
  %13 = getelementptr inbounds %struct.phuff_entropy_encoder, ptr %12, i32 0, i32 6
  %14 = load ptr, ptr %13, align 8
  %15 = call i32 %11(ptr noundef %14)
  %16 = icmp ne i32 %15, 0
  br i1 %16, label %34, label %17

17:                                               ; preds = %1
  %18 = load ptr, ptr %2, align 8
  %19 = getelementptr inbounds %struct.phuff_entropy_encoder, ptr %18, i32 0, i32 6
  %20 = load ptr, ptr %19, align 8
  %21 = getelementptr inbounds %struct.jpeg_compress_struct, ptr %20, i32 0, i32 0
  %22 = load ptr, ptr %21, align 8
  %23 = getelementptr inbounds %struct.jpeg_error_mgr, ptr %22, i32 0, i32 5
  store i32 24, ptr %23, align 8
  %24 = load ptr, ptr %2, align 8
  %25 = getelementptr inbounds %struct.phuff_entropy_encoder, ptr %24, i32 0, i32 6
  %26 = load ptr, ptr %25, align 8
  %27 = getelementptr inbounds %struct.jpeg_compress_struct, ptr %26, i32 0, i32 0
  %28 = load ptr, ptr %27, align 8
  %29 = getelementptr inbounds %struct.jpeg_error_mgr, ptr %28, i32 0, i32 0
  %30 = load ptr, ptr %29, align 8
  %31 = load ptr, ptr %2, align 8
  %32 = getelementptr inbounds %struct.phuff_entropy_encoder, ptr %31, i32 0, i32 6
  %33 = load ptr, ptr %32, align 8
  call void %30(ptr noundef %33)
  br label %34

34:                                               ; preds = %17, %1
  %35 = load ptr, ptr %3, align 8
  %36 = getelementptr inbounds %struct.jpeg_destination_mgr, ptr %35, i32 0, i32 0
  %37 = load ptr, ptr %36, align 8
  %38 = load ptr, ptr %2, align 8
  %39 = getelementptr inbounds %struct.phuff_entropy_encoder, ptr %38, i32 0, i32 2
  store ptr %37, ptr %39, align 8
  %40 = load ptr, ptr %3, align 8
  %41 = getelementptr inbounds %struct.jpeg_destination_mgr, ptr %40, i32 0, i32 1
  %42 = load i64, ptr %41, align 8
  %43 = load ptr, ptr %2, align 8
  %44 = getelementptr inbounds %struct.phuff_entropy_encoder, ptr %43, i32 0, i32 3
  store i64 %42, ptr %44, align 8
  ret void
}

; Function Attrs: nounwind uwtable
define internal void @emit_bits(ptr noundef %0, i32 noundef %1, i32 noundef %2) #0 {
  %4 = alloca ptr, align 8
  %5 = alloca i32, align 4
  %6 = alloca i32, align 4
  %7 = alloca i32, align 4
  %8 = alloca i32, align 4
  %9 = alloca i32, align 4
  store ptr %0, ptr %4, align 8
  store i32 %1, ptr %5, align 4
  store i32 %2, ptr %6, align 4
  %10 = load i32, ptr %5, align 4
  store i32 %10, ptr %7, align 4
  %11 = load ptr, ptr %4, align 8
  %12 = getelementptr inbounds %struct.phuff_entropy_encoder, ptr %11, i32 0, i32 5
  %13 = load i32, ptr %12, align 4
  store i32 %13, ptr %8, align 4
  %14 = load i32, ptr %6, align 4
  %15 = icmp eq i32 %14, 0
  br i1 %15, label %16, label %33

16:                                               ; preds = %3
  %17 = load ptr, ptr %4, align 8
  %18 = getelementptr inbounds %struct.phuff_entropy_encoder, ptr %17, i32 0, i32 6
  %19 = load ptr, ptr %18, align 8
  %20 = getelementptr inbounds %struct.jpeg_compress_struct, ptr %19, i32 0, i32 0
  %21 = load ptr, ptr %20, align 8
  %22 = getelementptr inbounds %struct.jpeg_error_mgr, ptr %21, i32 0, i32 5
  store i32 40, ptr %22, align 8
  %23 = load ptr, ptr %4, align 8
  %24 = getelementptr inbounds %struct.phuff_entropy_encoder, ptr %23, i32 0, i32 6
  %25 = load ptr, ptr %24, align 8
  %26 = getelementptr inbounds %struct.jpeg_compress_struct, ptr %25, i32 0, i32 0
  %27 = load ptr, ptr %26, align 8
  %28 = getelementptr inbounds %struct.jpeg_error_mgr, ptr %27, i32 0, i32 0
  %29 = load ptr, ptr %28, align 8
  %30 = load ptr, ptr %4, align 8
  %31 = getelementptr inbounds %struct.phuff_entropy_encoder, ptr %30, i32 0, i32 6
  %32 = load ptr, ptr %31, align 8
  call void %29(ptr noundef %32)
  br label %33

33:                                               ; preds = %16, %3
  %34 = load ptr, ptr %4, align 8
  %35 = getelementptr inbounds %struct.phuff_entropy_encoder, ptr %34, i32 0, i32 1
  %36 = load i32, ptr %35, align 8
  %37 = icmp ne i32 %36, 0
  br i1 %37, label %38, label %39

38:                                               ; preds = %33
  br label %105

39:                                               ; preds = %33
  %40 = load i32, ptr %6, align 4
  %41 = shl i32 1, %40
  %42 = sub nsw i32 %41, 1
  %43 = load i32, ptr %7, align 4
  %44 = and i32 %43, %42
  store i32 %44, ptr %7, align 4
  %45 = load i32, ptr %6, align 4
  %46 = load i32, ptr %8, align 4
  %47 = add nsw i32 %46, %45
  store i32 %47, ptr %8, align 4
  %48 = load i32, ptr %8, align 4
  %49 = sub nsw i32 24, %48
  %50 = load i32, ptr %7, align 4
  %51 = shl i32 %50, %49
  store i32 %51, ptr %7, align 4
  %52 = load ptr, ptr %4, align 8
  %53 = getelementptr inbounds %struct.phuff_entropy_encoder, ptr %52, i32 0, i32 4
  %54 = load i32, ptr %53, align 8
  %55 = load i32, ptr %7, align 4
  %56 = or i32 %55, %54
  store i32 %56, ptr %7, align 4
  br label %57

57:                                               ; preds = %93, %39
  %58 = load i32, ptr %8, align 4
  %59 = icmp sge i32 %58, 8
  br i1 %59, label %60, label %98

60:                                               ; preds = %57
  %61 = load i32, ptr %7, align 4
  %62 = ashr i32 %61, 16
  %63 = and i32 %62, 255
  store i32 %63, ptr %9, align 4
  %64 = load i32, ptr %9, align 4
  %65 = trunc i32 %64 to i8
  %66 = load ptr, ptr %4, align 8
  %67 = getelementptr inbounds %struct.phuff_entropy_encoder, ptr %66, i32 0, i32 2
  %68 = load ptr, ptr %67, align 8
  %69 = getelementptr inbounds i8, ptr %68, i32 1
  store ptr %69, ptr %67, align 8
  store i8 %65, ptr %68, align 1
  %70 = load ptr, ptr %4, align 8
  %71 = getelementptr inbounds %struct.phuff_entropy_encoder, ptr %70, i32 0, i32 3
  %72 = load i64, ptr %71, align 8
  %73 = add i64 %72, -1
  store i64 %73, ptr %71, align 8
  %74 = icmp eq i64 %73, 0
  br i1 %74, label %75, label %77

75:                                               ; preds = %60
  %76 = load ptr, ptr %4, align 8
  call void @dump_buffer(ptr noundef %76)
  br label %77

77:                                               ; preds = %75, %60
  %78 = load i32, ptr %9, align 4
  %79 = icmp eq i32 %78, 255
  br i1 %79, label %80, label %93

80:                                               ; preds = %77
  %81 = load ptr, ptr %4, align 8
  %82 = getelementptr inbounds %struct.phuff_entropy_encoder, ptr %81, i32 0, i32 2
  %83 = load ptr, ptr %82, align 8
  %84 = getelementptr inbounds i8, ptr %83, i32 1
  store ptr %84, ptr %82, align 8
  store i8 0, ptr %83, align 1
  %85 = load ptr, ptr %4, align 8
  %86 = getelementptr inbounds %struct.phuff_entropy_encoder, ptr %85, i32 0, i32 3
  %87 = load i64, ptr %86, align 8
  %88 = add i64 %87, -1
  store i64 %88, ptr %86, align 8
  %89 = icmp eq i64 %88, 0
  br i1 %89, label %90, label %92

90:                                               ; preds = %80
  %91 = load ptr, ptr %4, align 8
  call void @dump_buffer(ptr noundef %91)
  br label %92

92:                                               ; preds = %90, %80
  br label %93

93:                                               ; preds = %92, %77
  %94 = load i32, ptr %7, align 4
  %95 = shl i32 %94, 8
  store i32 %95, ptr %7, align 4
  %96 = load i32, ptr %8, align 4
  %97 = sub nsw i32 %96, 8
  store i32 %97, ptr %8, align 4
  br label %57, !llvm.loop !20

98:                                               ; preds = %57
  %99 = load i32, ptr %7, align 4
  %100 = load ptr, ptr %4, align 8
  %101 = getelementptr inbounds %struct.phuff_entropy_encoder, ptr %100, i32 0, i32 4
  store i32 %99, ptr %101, align 8
  %102 = load i32, ptr %8, align 4
  %103 = load ptr, ptr %4, align 8
  %104 = getelementptr inbounds %struct.phuff_entropy_encoder, ptr %103, i32 0, i32 5
  store i32 %102, ptr %104, align 4
  br label %105

105:                                              ; preds = %98, %38
  ret void
}