; Function Attrs: nounwind uwtable
define internal fastcc void @emit_bits(ptr nocapture noundef %0, i32 noundef %1, i32 noundef %2) unnamed_addr #0 {
  %4 = getelementptr inbounds i8, ptr %0, i64 52
  %5 = load i32, ptr %4, align 4
  %6 = icmp eq i32 %2, 0
  br i1 %6, label %7, label %15

7:                                                ; preds = %3
  %8 = getelementptr inbounds i8, ptr %0, i64 56
  %9 = load ptr, ptr %8, align 8
  %10 = load ptr, ptr %9, align 8
  %11 = getelementptr inbounds i8, ptr %10, i64 40
  store i32 40, ptr %11, align 8
  %12 = load ptr, ptr %8, align 8
  %13 = load ptr, ptr %12, align 8
  %14 = load ptr, ptr %13, align 8
  tail call void %14(ptr noundef nonnull %12) #4
  br label %15

15:                                               ; preds = %7, %3
  %16 = getelementptr inbounds i8, ptr %0, i64 24
  %17 = load i32, ptr %16, align 8
  %.not = icmp eq i32 %17, 0
  br i1 %.not, label %18, label %86

18:                                               ; preds = %15
  %notmask = shl nsw i32 -1, %2
  %19 = xor i32 %notmask, -1
  %20 = and i32 %19, %1
  %21 = add nsw i32 %5, %2
  %22 = sub nsw i32 24, %21
  %23 = shl i32 %20, %22
  %24 = getelementptr inbounds i8, ptr %0, i64 48
  %25 = load i32, ptr %24, align 8
  %26 = or i32 %25, %23
  %27 = icmp sgt i32 %21, 7
  br i1 %27, label %.lr.ph, label %._crit_edge

.lr.ph:                                           ; preds = %18
  %28 = getelementptr inbounds i8, ptr %0, i64 32
  %29 = getelementptr inbounds i8, ptr %0, i64 40
  %30 = getelementptr inbounds i8, ptr %0, i64 56
  br label %31

31:                                               ; preds = %.lr.ph, %82
  %.034 = phi i32 [ %26, %.lr.ph ], [ %83, %82 ]
  %.03033 = phi i32 [ %21, %.lr.ph ], [ %84, %82 ]
  %32 = lshr i32 %.034, 16
  %33 = trunc i32 %32 to i8
  %34 = load ptr, ptr %28, align 8
  %35 = getelementptr inbounds i8, ptr %34, i64 1
  store ptr %35, ptr %28, align 8
  store i8 %33, ptr %34, align 1
  %36 = load i64, ptr %29, align 8
  %37 = add i64 %36, -1
  store i64 %37, ptr %29, align 8
  %38 = icmp eq i64 %37, 0
  br i1 %38, label %39, label %56

39:                                               ; preds = %31
  %40 = load ptr, ptr %30, align 8
  %41 = getelementptr inbounds i8, ptr %40, i64 40
  %42 = load ptr, ptr %41, align 8
  %43 = getelementptr inbounds i8, ptr %42, i64 24
  %44 = load ptr, ptr %43, align 8
  %45 = tail call i32 %44(ptr noundef %40) #4
  %.not.i = icmp eq i32 %45, 0
  br i1 %.not.i, label %46, label %dump_buffer.exit

46:                                               ; preds = %39
  %47 = load ptr, ptr %30, align 8
  %48 = load ptr, ptr %47, align 8
  %49 = getelementptr inbounds i8, ptr %48, i64 40
  store i32 24, ptr %49, align 8
  %50 = load ptr, ptr %30, align 8
  %51 = load ptr, ptr %50, align 8
  %52 = load ptr, ptr %51, align 8
  tail call void %52(ptr noundef nonnull %50) #4
  br label %dump_buffer.exit

dump_buffer.exit:                                 ; preds = %39, %46
  %53 = load ptr, ptr %42, align 8
  store ptr %53, ptr %28, align 8
  %54 = getelementptr inbounds i8, ptr %42, i64 8
  %55 = load i64, ptr %54, align 8
  store i64 %55, ptr %29, align 8
  br label %56

56:                                               ; preds = %dump_buffer.exit, %31
  %57 = and i32 %.034, 16711680
  %58 = icmp eq i32 %57, 16711680
  br i1 %58, label %59, label %82

59:                                               ; preds = %56
  %60 = load ptr, ptr %28, align 8
  %61 = getelementptr inbounds i8, ptr %60, i64 1
  store ptr %61, ptr %28, align 8
  store i8 0, ptr %60, align 1
  %62 = load i64, ptr %29, align 8
  %63 = add i64 %62, -1
  store i64 %63, ptr %29, align 8
  %64 = icmp eq i64 %63, 0
  br i1 %64, label %65, label %82

65:                                               ; preds = %59
  %66 = load ptr, ptr %30, align 8
  %67 = getelementptr inbounds i8, ptr %66, i64 40
  %68 = load ptr, ptr %67, align 8
  %69 = getelementptr inbounds i8, ptr %68, i64 24
  %70 = load ptr, ptr %69, align 8
  %71 = tail call i32 %70(ptr noundef %66) #4
  %.not.i31 = icmp eq i32 %71, 0
  br i1 %.not.i31, label %72, label %dump_buffer.exit32

72:                                               ; preds = %65
  %73 = load ptr, ptr %30, align 8
  %74 = load ptr, ptr %73, align 8
  %75 = getelementptr inbounds i8, ptr %74, i64 40
  store i32 24, ptr %75, align 8
  %76 = load ptr, ptr %30, align 8
  %77 = load ptr, ptr %76, align 8
  %78 = load ptr, ptr %77, align 8
  tail call void %78(ptr noundef nonnull %76) #4
  br label %dump_buffer.exit32

dump_buffer.exit32:                               ; preds = %65, %72
  %79 = load ptr, ptr %68, align 8
  store ptr %79, ptr %28, align 8
  %80 = getelementptr inbounds i8, ptr %68, i64 8
  %81 = load i64, ptr %80, align 8
  store i64 %81, ptr %29, align 8
  br label %82

82:                                               ; preds = %59, %dump_buffer.exit32, %56
  %83 = shl i32 %.034, 8
  %84 = add nsw i32 %.03033, -8
  %85 = icmp sgt i32 %.03033, 15
  br i1 %85, label %31, label %._crit_edge, !llvm.loop !10

._crit_edge:                                      ; preds = %82, %18
  %.030.lcssa = phi i32 [ %21, %18 ], [ %84, %82 ]
  %.0.lcssa = phi i32 [ %26, %18 ], [ %83, %82 ]
  store i32 %.0.lcssa, ptr %24, align 8
  store i32 %.030.lcssa, ptr %4, align 4
  br label %86

86:                                               ; preds = %15, %._crit_edge
  ret void
}